(dp1
S'output'
p2
S'missing "pass" in view'
p3
sS'layer'
p4
S'ParserContainer'
p5
sS'code'
p6
S'response.write(\'<table>\\n  <tr>\\n      <td align="right">\\n          <iframe name="ifrm1" id="myFrame1" width="500" height="560"  src=\\\'http://w3schools.com\\\'></iframe>\\n     </td>\\n\\n      <td>\\n        <iframe name="ifrm2" id="myFrame2" width="500" height="560"  src=\\\'dummy.txt\\\'></iframe>\\n        \', escape=False)\nf = open(\'/home/yasaswi/mail.txt\', \'r\')\nresponse.write(\'\\n        \', escape=False)\nfor line in f:\n    response.write(\'\\n        \', escape=False)\n    print line\n    response.write(\'\\n    </td>\\n\\n      <td valign="top" align="left">\\n        \', escape=False)\n    response.write(form.custom.begin)\n    response.write(\'\\n\\n       <h4>Select a Label:</h4> <div>\', escape=False)\n    response.write(form.custom.widget.Label)\n    response.write(\'</div> <br><br>\\n       <h4>Select Type:</h4> <div>\', escape=False)\n    response.write(form.custom.widget.Type)\n    response.write(\'</div>\\n       \', escape=False)\n    response.write(form.custom.submit)\n    response.write(\'\\n        \', escape=False)\n    response.write(form.custom.end)\n    response.write(\'\\n    </td>\\n    </tr>\\n      <tr>\\n          <td align="right">\\n              <input type="button" id="b1" value="prev">\\n          </td>\\n          <td align="left" colspan="2">\\n              <input type="button" id="b2" value="next">\\n          </td>\\n      </tr>\\n</table>\\n\\n<script type="text/javascript">\\n    var myBtn = document.getElementById(\\\'b1\\\');\\n\\n    //add event listener\\n    myBtn.addEventListener(\\\'click\\\', function(event) {\\n        var el = document.getElementById(\\\'myFrame2\\\');\\n        el.src = "http://w3schools.com"\\n    });\\n</script>\\n\', escape=False)'
p7
sS'snapshot'
p8
(dp9
S'exception'
p10
(dp11
S'__module__'
p12
S"'gluon.rocket'"
p13
sS'__getslice__'
p14
S"<method-wrapper '__getslice__' of SocketTimeout object>"
p15
sS'__str__'
p16
S"<method-wrapper '__str__' of SocketTimeout object>"
p17
sS'__reduce__'
p18
S'<built-in method __reduce__ of SocketTimeout object>'
p19
sS'__dict__'
p20
S'{}'
p21
sS'__sizeof__'
p22
S'<built-in method __sizeof__ of SocketTimeout object>'
p23
sS'__weakref__'
p24
S'None'
p25
sS'message'
p26
S"'Socket timed out before request.'"
p27
sS'__init__'
p28
S"<method-wrapper '__init__' of SocketTimeout object>"
p29
sS'__setattr__'
p30
S"<method-wrapper '__setattr__' of SocketTimeout object>"
p31
sS'__reduce_ex__'
p32
S'<built-in method __reduce_ex__ of SocketTimeout object>'
p33
sS'__new__'
p34
S'<built-in method __new__ of type object>'
p35
sS'__format__'
p36
S'<built-in method __format__ of SocketTimeout object>'
p37
sS'__class__'
p38
S"<class 'gluon.rocket.SocketTimeout'>"
p39
sS'__doc__'
p40
S"'Exception for when a socket times out between requests.'"
p41
sS'__getitem__'
p42
S"<method-wrapper '__getitem__' of SocketTimeout object>"
p43
sS'__setstate__'
p44
S'<built-in method __setstate__ of SocketTimeout object>'
p45
sS'__getattribute__'
p46
S"<method-wrapper '__getattribute__' of SocketTimeout object>"
p47
sS'args'
p48
S"('Socket timed out before request.',)"
p49
sS'__subclasshook__'
p50
S'<built-in method __subclasshook__ of type object>'
p51
sS'__unicode__'
p52
S'<built-in method __unicode__ of SocketTimeout object>'
p53
sS'__delattr__'
p54
S"<method-wrapper '__delattr__' of SocketTimeout object>"
p55
sS'__repr__'
p56
S"<method-wrapper '__repr__' of SocketTimeout object>"
p57
sS'__hash__'
p58
S"<method-wrapper '__hash__' of SocketTimeout object>"
p59
ssS'evalue'
p60
S'Socket timed out before request.'
p61
sS'frames'
p62
(lp63
(dp64
S'file'
p65
S'/home/yasaswi/web2py/gluon/rocket.py'
p66
sS'dump'
p67
(dp68
S'self'
p69
S'<WSGIWorker(Thread-9, started daemon 140694916155136)>'
p70
sS'conn'
p71
S'<gluon.rocket.Connection object>'
p72
sS'self.run_app'
p73
S'<bound method WSGIWorker.run_app of <WSGIWorker(Thread-9, started daemon 140694916155136)>>'
p74
ssS'lnum'
p75
I1320
sS'lines'
p76
(dp77
I1315
S'            # Enter connection serve loop'
p78
sI1316
S'            while True:'
p79
sI1317
S'                if __debug__:'
p80
sI1318
S"                    self.err_log.debug('Serving a request')"
p81
sI1319
S'                try:'
p82
sI1320
S'                    self.run_app(conn)'
p83
sI1321
S'                except:'
p84
sI1322
S'                    exc = sys.exc_info()'
p85
sI1323
S'                    handled = self._handleError(*exc)'
p86
sI1324
S'                    if handled:'
p87
ssS'call'
p88
S'(self=<WSGIWorker(Thread-9, started daemon 140694916155136)>)'
p89
sS'func'
p90
S'run'
p91
sa(dp92
g65
S'/home/yasaswi/web2py/gluon/rocket.py'
p93
sg67
(dp94
S'self'
p95
S'<WSGIWorker(Thread-9, started daemon 140694916155136)>'
p96
sS'self.environ'
p97
S"{'HTTP_ACCEPT': 'text/html,application/xhtml+xml,application/xml;q=0.9,*/*;q=0.8', 'HTTP_ACCEPT_ENCODING': 'gzip, deflate', 'HTTP_ACCEPT_LANGUAGE': 'en-US,en;q=0.5', 'HTTP_CACHE_CONTROL': 'no-cache', 'HTTP_CONNECTION': 'keep-alive', 'HTTP_COOKIE': 'session_id_welcome=127.0.0.1-b00745d2-6b2a-48dd-...my=127.0.0.1-12656985-956d-4c90-bf83-6ce8c236f9c1', 'HTTP_HOST': '127.0.0.1:8000', 'HTTP_PRAGMA': 'no-cache', 'HTTP_UPGRADE_INSECURE_REQUESTS': '1', 'HTTP_USER_AGENT': 'Mozilla/5.0 (X11; Ubuntu; Linux x86_64; rv:50.0) Gecko/20100101 Firefox/50.0', ...}"
p98
sS'sock_file'
p99
S'<socket._fileobject object>'
p100
sS'environ'
p101
S'undefined'
p102
sS'self.build_environ'
p103
S'<bound method WSGIWorker.build_environ of <WSGIWorker(Thread-9, started daemon 140694916155136)>>'
p104
sS'conn'
p105
S'<gluon.rocket.Connection object>'
p106
ssg75
I1813
sg76
(dp107
I1808
S'        else:'
p108
sI1809
S'            sock_file = conn.makefile(BUF_SIZE)'
p109
sI1810
S''
sI1811
S'        try:'
p110
sI1812
S'            # Read the headers and build our WSGI environment'
p111
sI1813
S'            self.environ = environ = self.build_environ(sock_file, conn)'
p112
sI1814
S''
sI1815
S'            # Handle 100 Continue'
p113
sI1816
S"            if environ.get('HTTP_EXPECT', '') == '100-continue':"
p114
sI1817
S"                res = environ['SERVER_PROTOCOL'] + ' 100 Continue\\r\\n\\r\\n'"
p115
ssg88
S'(self=<WSGIWorker(Thread-9, started daemon 140694916155136)>, conn=<gluon.rocket.Connection object>)'
p116
sg90
S'run_app'
p117
sa(dp118
g65
S'/home/yasaswi/web2py/gluon/rocket.py'
p119
sg67
(dp120
S'sock_file'
p121
S'<socket._fileobject object>'
p122
sS'self.read_request_line'
p123
S'<bound method WSGIWorker.read_request_line of <W...orker(Thread-9, started daemon 140694916155136)>>'
p124
sS'self'
p125
S'<WSGIWorker(Thread-9, started daemon 140694916155136)>'
p126
sS'request'
p127
g102
ssg75
I1633
sg76
(dp128
I1632
S'        # Grab the request line'
p129
sI1633
S'        request = self.read_request_line(sock_file)'
p130
sI1634
S''
sI1635
S'        # Copy the Base Environment'
p131
sI1636
S'        environ = self.base_environ.copy()'
p132
sI1637
S''
sI1628
S'                                      "wsgiorg.futures": executor.futures})'
p133
sI1629
S''
sI1630
S'    def build_environ(self, sock_file, conn):'
p134
sI1631
S'        """ Build the execution environment. """'
p135
ssg88
S'(self=<WSGIWorker(Thread-9, started daemon 140694916155136)>, sock_file=<socket._fileobject object>, conn=<gluon.rocket.Connection object>)'
p136
sg90
S'build_environ'
p137
sa(dp138
g65
S'/home/yasaswi/web2py/gluon/rocket.py'
p139
sg67
(dp140
S'global SocketTimeout'
p141
S"<class 'gluon.rocket.SocketTimeout'>"
p142
ssg75
I1384
sg76
(dp143
I1379
S''
sI1380
S'                d = sock_file.readline()'
p144
sI1381
S'                if PY3K:'
p145
sI1382
S"                    d = d.decode('ISO-8859-1')"
p146
sI1383
S'        except socket.timeout:'
p147
sI1384
S"            raise SocketTimeout('Socket timed out before request.')"
p148
sI1385
S'        except TypeError:'
p149
sI1386
S'            raise SocketClosed('
p150
sI1387
S"                'SSL bug caused closure of socket.  See '"
p151
sI1388
S'                \'"https://groups.google.com/d/topic/web2py/P_Gw0JxWzCs".\')'
p152
ssg88
S'(self=<WSGIWorker(Thread-9, started daemon 140694916155136)>, sock_file=<socket._fileobject object>)'
p153
sg90
S'read_request_line'
p154
sasS'pyver'
p155
S'Python 2.7.6: /usr/bin/python (prefix: /usr)'
p156
sS'etype'
p157
S"<class 'gluon.rocket.SocketTimeout'>"
p158
sS'date'
p159
S'Thu Dec  1 00:40:08 2016'
p160
sS'locals'
p161
(dp162
S'sock_file'
p163
S'<socket._fileobject object>'
p164
sS'self'
p165
S'<WSGIWorker(Thread-9, started daemon 140694916155136)>'
p166
sssS'traceback'
p167
S'Traceback (most recent call last):\n  File "/home/yasaswi/web2py/gluon/rocket.py", line 1320, in run\n    self.run_app(conn)\n  File "/home/yasaswi/web2py/gluon/rocket.py", line 1813, in run_app\n    self.environ = environ = self.build_environ(sock_file, conn)\n  File "/home/yasaswi/web2py/gluon/rocket.py", line 1633, in build_environ\n    request = self.read_request_line(sock_file)\n  File "/home/yasaswi/web2py/gluon/rocket.py", line 1384, in read_request_line\n    raise SocketTimeout(\'Socket timed out before request.\')\nSocketTimeout: Socket timed out before request.\n'
p168
s.